(lp0
(lp1
(S'i'
p2
S'NN'
p3
S'start'
p4
S'VB'
p5
S'NA'
p6
S'B'
p7
g6
I0
I0
g7
tp8
a(Vbe
p9
g5
g3
S'DT'
p10
g6
g7
g6
I0
I0
g7
tp11
a(S'a'
p12
g10
g5
S'CD'
p13
g6
g7
g6
I0
I0
g7
tp14
a(S'24'
p15
g13
g10
S'NNS'
p16
g6
g7
g6
I0
I0
g7
tp17
a(S'years'
p18
g16
g13
S'JJ'
p19
VTemporal_Concept
p20
g7
g6
I5
I0
g7
tp21
a(S'old'
p22
g19
g16
g3
g20
g7
g6
I4
I14
g7
tp23
a(S'male'
p24
g3
g19
S'.'
p25
VOrganism_Attribute
p26
g7
g6
I4
I12
g7
tp27
a(S'.'
p28
g25
g3
S'end'
p29
g6
g7
g6
I0
I0
g7
tp30
aa(lp31
(S'explosive'
p32
S'JJ'
p33
g4
S'NN'
p34
VDisease_or_Syndrome
p35
g7
S'disease'
p36
I0
I0
g7
tp37
a(S'diarrhea'
p38
g34
g33
g34
g35
S'I'
p39
g36
I1
I0
g7
tp40
a(S'fever'
p41
g34
g34
S'IN'
p42
VFinding
p43
g7
g6
I1
I0
g7
tp44
a(S'for'
p45
g42
g34
S'IN'
p46
VQualitative_Concept
p47
g7
g6
I0
I0
g7
tp48
a(S'about'
p49
g46
g42
S'CD'
p50
g47
g7
g6
I0
I0
g7
tp51
a(S'5'
p52
g50
g46
S'NNS'
p53
g20
g7
g6
I0
I0
g7
tp54
a(S'days'
p55
g53
g50
S'.'
p56
g20
g39
g6
I5
I0
g7
tp57
a(g28
g56
g53
g29
g6
g7
g6
I0
I0
g7
tp58
aa.